#include <math.h>
#include <stdio.h>
#include <stdlib.h>
#include <string.h>

int main()
{
    int j,k,l,n,i;
    scanf("%d",&n);
    j=2;
    k=2;
    if(n>=5)
    {
       for(l=3;l<=n;l++)
       {
          for(i=2;i<l;i++)
          {
             if(l%i==0)
               break;
          }
          if(i==l)
          {
             j=k;
             k=l;
             if(k-j==2)
                printf("%d %d\n",j,k);
          }
       }
    }
    else
    printf("empty");           
    return 0;
}       
