; ModuleID = '60/1317.c'
source_filename = "60/1317.c"
target datalayout = "e-m:e-p270:32:32-p271:32:32-p272:64:64-i64:64-f80:128-n8:16:32:64-S128"
target triple = "x86_64-pc-linux-gnu"

@.str = private unnamed_addr constant [3 x i8] c"%d\00", align 1
@.str.1 = private unnamed_addr constant [7 x i8] c"%d %d\0A\00", align 1
@.str.2 = private unnamed_addr constant [6 x i8] c"empty\00", align 1

; Function Attrs: noinline nounwind uwtable
define dso_local i32 @main() #0 {
  %1 = alloca i32, align 4
  %2 = alloca i32, align 4
  %3 = alloca i32, align 4
  %4 = alloca i32, align 4
  %5 = alloca i32, align 4
  %6 = alloca i32, align 4
  store i32 0, i32* %1, align 4
  %7 = call i32 (i8*, ...) @__isoc99_scanf(i8* getelementptr inbounds ([3 x i8], [3 x i8]* @.str, i64 0, i64 0), i32* %5)
  store i32 2, i32* %2, align 4
  store i32 2, i32* %3, align 4
  %8 = load i32, i32* %5, align 4
  %9 = icmp sge i32 %8, 5
  br i1 %9, label %10, label %51

10:                                               ; preds = %0
  store i32 3, i32* %4, align 4
  br label %11

11:                                               ; preds = %47, %10
  %12 = load i32, i32* %4, align 4
  %13 = load i32, i32* %5, align 4
  %14 = icmp sle i32 %12, %13
  br i1 %14, label %15, label %50

15:                                               ; preds = %11
  store i32 2, i32* %6, align 4
  br label %16

16:                                               ; preds = %27, %15
  %17 = load i32, i32* %6, align 4
  %18 = load i32, i32* %4, align 4
  %19 = icmp slt i32 %17, %18
  br i1 %19, label %20, label %30

20:                                               ; preds = %16
  %21 = load i32, i32* %4, align 4
  %22 = load i32, i32* %6, align 4
  %23 = srem i32 %21, %22
  %24 = icmp eq i32 %23, 0
  br i1 %24, label %25, label %26

25:                                               ; preds = %20
  br label %30

26:                                               ; preds = %20
  br label %27

27:                                               ; preds = %26
  %28 = load i32, i32* %6, align 4
  %29 = add nsw i32 %28, 1
  store i32 %29, i32* %6, align 4
  br label %16

30:                                               ; preds = %25, %16
  %31 = load i32, i32* %6, align 4
  %32 = load i32, i32* %4, align 4
  %33 = icmp eq i32 %31, %32
  br i1 %33, label %34, label %46

34:                                               ; preds = %30
  %35 = load i32, i32* %3, align 4
  store i32 %35, i32* %2, align 4
  %36 = load i32, i32* %4, align 4
  store i32 %36, i32* %3, align 4
  %37 = load i32, i32* %3, align 4
  %38 = load i32, i32* %2, align 4
  %39 = sub nsw i32 %37, %38
  %40 = icmp eq i32 %39, 2
  br i1 %40, label %41, label %45

41:                                               ; preds = %34
  %42 = load i32, i32* %2, align 4
  %43 = load i32, i32* %3, align 4
  %44 = call i32 (i8*, ...) @printf(i8* getelementptr inbounds ([7 x i8], [7 x i8]* @.str.1, i64 0, i64 0), i32 %42, i32 %43)
  br label %45

45:                                               ; preds = %41, %34
  br label %46

46:                                               ; preds = %45, %30
  br label %47

47:                                               ; preds = %46
  %48 = load i32, i32* %4, align 4
  %49 = add nsw i32 %48, 1
  store i32 %49, i32* %4, align 4
  br label %11

50:                                               ; preds = %11
  br label %53

51:                                               ; preds = %0
  %52 = call i32 (i8*, ...) @printf(i8* getelementptr inbounds ([6 x i8], [6 x i8]* @.str.2, i64 0, i64 0))
  br label %53

53:                                               ; preds = %51, %50
  ret i32 0
}

declare dso_local i32 @__isoc99_scanf(i8*, ...) #1

declare dso_local i32 @printf(i8*, ...) #1


!llvm.module.flags = !{!0}
!llvm.ident = !{!1}

!0 = !{i32 1, !"wchar_size", i32 4}
!1 = !{!"clang version 10.0.0-4ubuntu1 "}
