; ModuleID = 'source-C-CXX/59/1317.c'
source_filename = "source-C-CXX/59/1317.c"
target datalayout = "e-m:e-p270:32:32-p271:32:32-p272:64:64-i64:64-f80:128-n8:16:32:64-S128"
target triple = "x86_64-pc-linux-gnu"

@.str = private unnamed_addr constant [3 x i8] c"%d\00", align 1
@.str.1 = private unnamed_addr constant [7 x i8] c"%d %d\0A\00", align 1
@.str.2 = private unnamed_addr constant [6 x i8] c"empty\00", align 1

; Function Attrs: nofree nounwind sspstrong uwtable
define dso_local i32 @main() local_unnamed_addr #0 {
  %1 = alloca i32, align 4
  %2 = bitcast i32* %1 to i8*
  call void @llvm.lifetime.start.p0i8(i64 4, i8* nonnull %2) #3
  %3 = call i32 (i8*, ...) @__isoc99_scanf(i8* getelementptr inbounds ([3 x i8], [3 x i8]* @.str, i64 0, i64 0), i32* nonnull %1)
  %4 = load i32, i32* %1, align 4, !tbaa !5
  %5 = icmp sgt i32 %4, 4
  br i1 %5, label %6, label %30

6:                                                ; preds = %0, %25
  %7 = phi i32 [ %26, %25 ], [ %4, %0 ]
  %8 = phi i32 [ %28, %25 ], [ 3, %0 ]
  %9 = phi i32 [ %27, %25 ], [ 2, %0 ]
  br label %10

10:                                               ; preds = %6, %14
  %11 = phi i32 [ %15, %14 ], [ 2, %6 ]
  %12 = urem i32 %8, %11
  %13 = icmp eq i32 %12, 0
  br i1 %13, label %17, label %14

14:                                               ; preds = %10
  %15 = add nuw nsw i32 %11, 1
  %16 = icmp eq i32 %15, %8
  br i1 %16, label %19, label %10, !llvm.loop !9

17:                                               ; preds = %10
  %18 = icmp eq i32 %11, %8
  br i1 %18, label %19, label %25

19:                                               ; preds = %14, %17
  %20 = sub nsw i32 %8, %9
  %21 = icmp eq i32 %20, 2
  br i1 %21, label %22, label %25

22:                                               ; preds = %19
  %23 = call i32 (i8*, ...) @printf(i8* nonnull dereferenceable(1) getelementptr inbounds ([7 x i8], [7 x i8]* @.str.1, i64 0, i64 0), i32 %9, i32 %8)
  %24 = load i32, i32* %1, align 4, !tbaa !5
  br label %25

25:                                               ; preds = %17, %22, %19
  %26 = phi i32 [ %24, %22 ], [ %7, %19 ], [ %7, %17 ]
  %27 = phi i32 [ %8, %22 ], [ %8, %19 ], [ %9, %17 ]
  %28 = add nuw nsw i32 %8, 1
  %29 = icmp slt i32 %8, %26
  br i1 %29, label %6, label %32, !llvm.loop !11

30:                                               ; preds = %0
  %31 = call i32 (i8*, ...) @printf(i8* nonnull dereferenceable(1) getelementptr inbounds ([6 x i8], [6 x i8]* @.str.2, i64 0, i64 0))
  br label %32

32:                                               ; preds = %25, %30
  call void @llvm.lifetime.end.p0i8(i64 4, i8* nonnull %2) #3
  ret i32 0
}

; Function Attrs: argmemonly mustprogress nofree nosync nounwind willreturn
declare void @llvm.lifetime.start.p0i8(i64 immarg, i8* nocapture) #1

; Function Attrs: nofree nounwind
declare noundef i32 @__isoc99_scanf(i8* nocapture noundef readonly, ...) local_unnamed_addr #2

; Function Attrs: nofree nounwind
declare noundef i32 @printf(i8* nocapture noundef readonly, ...) local_unnamed_addr #2

; Function Attrs: argmemonly mustprogress nofree nosync nounwind willreturn
declare void @llvm.lifetime.end.p0i8(i64 immarg, i8* nocapture) #1


!llvm.module.flags = !{!0, !1, !2, !3}
!llvm.ident = !{!4}

!0 = !{i32 1, !"wchar_size", i32 4}
!1 = !{i32 7, !"PIC Level", i32 2}
!2 = !{i32 7, !"PIE Level", i32 2}
!3 = !{i32 7, !"uwtable", i32 1}
!4 = !{!"clang version 13.0.0"}
!5 = !{!6, !6, i64 0}
!6 = !{!"int", !7, i64 0}
!7 = !{!"omnipotent char", !8, i64 0}
!8 = !{!"Simple C/C++ TBAA"}
!9 = distinct !{!9, !10}
!10 = !{!"llvm.loop.mustprogress"}
!11 = distinct !{!11, !10}
